; Function Attrs: mustprogress nofree norecurse nosync nounwind willreturn memory(read, argmem: readwrite, inaccessiblemem: none) uwtable
define dso_local range(i32 -6, 1) i32 @onigenc_unicode_ctype_code_range(i32 noundef %0, ptr noundef writeonly captures(none) %1) local_unnamed_addr #7 {
  %3 = icmp ugt i32 %0, 605
  br i1 %3, label %4, label %11

4:                                                ; preds = %2
  %5 = add i32 %0, -606
  %6 = load i32, ptr @UserDefinedPropertyNum, align 4, !tbaa !17
  %7 = icmp slt i32 %5, %6
  br i1 %7, label %8, label %14

8:                                                ; preds = %4
  %9 = sext i32 %5 to i64
  %10 = getelementptr inbounds [20 x %struct.UserDefinedPropertyValue], ptr @UserDefinedPropertyRanges, i64 0, i64 %9, i32 1
  br label %.sink.split

11:                                               ; preds = %2
  %12 = zext nneg i32 %0 to i64
  %13 = getelementptr inbounds nuw [606 x ptr], ptr @CodeRanges, i64 0, i64 %12
  br label %.sink.split

.sink.split:                                      ; preds = %11, %8
  %.sink.in = phi ptr [ %10, %8 ], [ %13, %11 ]
  %.sink = load ptr, ptr %.sink.in, align 8, !tbaa !64
  store ptr %.sink, ptr %1, align 8, !tbaa !64
  br label %14

14:                                               ; preds = %.sink.split, %4
  %.1 = phi i32 [ -6, %4 ], [ 0, %.sink.split ]
  ret i32 %.1
}